Certificate:
    Data:
        Version: 3 (0x2)
        Serial Number: 393 (0x189)
        Signature Algorithm: sha1WithRSAEncryption
        Issuer: C=UY, ST=Montevideo, L=Montevideo, O=RootWay, OU=Security Division, CN=www.rootway.com/emailAddress=support@rootway.com
        Validity
            Not Before: Apr 30 00:22:50 2012 GMT
            Not After : Apr 28 00:22:50 2022 GMT
        Subject: C=UY, ST=Montevideo, O=Acme Inc., OU=TEST, CN=TEST-RADE/emailAddress=NOT VALID
        Subject Public Key Info:
            Public Key Algorithm: rsaEncryption
            RSA Public Key: (2048 bit)
                Modulus (2048 bit):
                    00:cf:4e:32:06:06:09:df:45:6a:4b:d0:3e:c9:d0:
                    5c:cc:3a:15:3d:34:e3:f4:ce:bb:0d:80:42:a4:5e:
                    a2:e6:cd:2a:78:55:71:4e:75:47:0b:1d:e6:36:d6:
                    ba:c6:fb:e4:8a:eb:08:69:7d:4e:dc:21:00:90:30:
                    85:e3:45:a3:98:1a:2e:14:fe:72:0c:6e:97:02:4a:
                    71:a6:8e:27:94:b4:a0:1f:85:05:02:48:c6:8b:e1:
                    87:10:44:c7:a3:a6:d0:4b:5f:2f:16:02:5b:a6:b3:
                    e7:ab:75:21:2d:35:e6:0d:e1:57:69:fe:92:d9:c4:
                    78:e7:f3:50:72:84:ef:07:cb:b9:ee:86:bb:89:c0:
                    52:06:02:4d:15:b6:b5:b1:55:54:c0:25:3f:3f:e1:
                    1d:45:a3:4b:fd:f3:09:73:27:76:6d:46:56:62:a1:
                    83:9f:3a:0f:7f:f4:28:12:22:03:f5:6a:c1:27:c9:
                    0e:7e:3b:c1:00:f1:97:df:5e:a8:db:f8:a8:9c:76:
                    70:dd:77:5e:3a:74:d3:60:5b:e9:ab:f7:53:a4:2e:
                    62:64:ac:ac:4e:35:a9:33:91:7f:72:de:4b:c2:01:
                    60:83:2e:61:12:f6:ae:e9:da:8c:08:1a:ff:5f:c8:
                    1b:3d:95:46:ba:f8:b6:c5:80:0c:88:bc:1b:fe:e6:
                    5b:bf
                Exponent: 65537 (0x10001)
        X509v3 extensions:
            X509v3 Basic Constraints: 
                CA:FALSE
            Netscape Comment: 
                OpenSSL Generated Certificate
            X509v3 Subject Key Identifier: 
                3C:03:60:04:BA:B8:FA:29:A4:AB:EA:A5:82:5A:B8:5B:F2:56:8E:D4
            X509v3 Authority Key Identifier: 
                keyid:98:E6:93:42:40:DC:B3:E3:F8:99:E7:A7:6A:00:E3:54:90:44:CD:F8
                DirName:/C=UY/ST=Montevideo/L=Montevideo/O=RootWay/OU=Security Division/CN=www.rootway.com/emailAddress=support@rootway.com
                serial:F1:14:3A:96:11:61:8B:50

    Signature Algorithm: sha1WithRSAEncryption
        52:00:be:fa:c2:92:50:87:d0:5f:79:6e:f3:61:39:52:08:17:
        19:78:42:e9:a1:03:74:92:ec:7b:c2:97:30:8e:c0:49:6c:8b:
        94:bc:25:cb:be:a8:3e:57:f7:55:79:7c:51:fd:76:73:ef:9e:
        9a:f4:42:a9:05:60:aa:fb:cc:57:f9:83:7a:46:73:56:26:3b:
        8f:ee:0a:81:93:2c:72:fa:8e:f2:1c:db:d5:21:58:83:4d:ad:
        93:52:81:9d:ab:0e:16:03:5d:2f:c8:33:07:f7:06:80:ed:ca:
        02:00:6a:17:68:96:03:26:70:71:ec:f5:ff:03:db:80:b1:2d:
        2e:3a:a6:c9:25:20:7a:84:ac:f3:ff:6a:f8:fe:ea:a8:b8:e8:
        4c:91:26:aa:13:11:f7:cb:79:d3:1c:a8:6a:6f:54:f0:2a:a1:
        63:09:bc:14:f9:e1:39:f8:84:f2:1b:3f:97:ea:98:39:a9:41:
        1a:eb:cc:39:f9:33:9a:2d:9e:73:26:a4:ac:0e:27:8e:6d:12:
        83:37:5b:ad:36:95:b6:52:da:f0:3d:1c:8e:f5:9f:c5:b3:97:
        9e:7c:b4:d7:9b:a4:eb:ff:b3:5e:96:4d:55:1f:aa:b4:e8:7c:
        02:04:ae:5c:b2:a3:b3:6e:fb:e8:31:a8:7b:08:31:cd:b5:de:
        94:63:ad:0d
-----BEGIN RSA PRIVATE KEY-----
MIIEowIBAAKCAQEAz04yBgYJ30VqS9A+ydBczDoVPTTj9M67DYBCpF6i5s0qeFVx
TnVHCx3mNta6xvvkiusIaX1O3CEAkDCF40WjmBouFP5yDG6XAkpxpo4nlLSgH4UF
AkjGi+GHEETHo6bQS18vFgJbprPnq3UhLTXmDeFXaf6S2cR45/NQcoTvB8u57oa7
icBSBgJNFba1sVVUwCU/P+EdRaNL/fMJcyd2bUZWYqGDnzoPf/QoEiID9WrBJ8kO
fjvBAPGX316o2/ionHZw3XdeOnTTYFvpq/dTpC5iZKysTjWpM5F/ct5LwgFggy5h
Evau6dqMCBr/X8gbPZVGuvi2xYAMiLwb/uZbvwIDAQABAoIBAQCa6Rbuc2K7KjcF
UicpTf+aSSkH5NcXX8hdjWO/Sky25cd/xnF2LKMbBou6nPlTqnWc7YcKtS3RxwOR
vADA1ZArIB0haQY2jglgF9sXmBCxycwB4bfdfh6H9s6j9JGulAAA4q7f5oEwcC2F
bXCORUGVS7ezqB16h5vF0IdkHDw2eMkxzDS3VOG+06NdB26kT8gw3PqF9PQW3J7q
Tvq/aITrLXXH/2OerueCMxF/I1SFEpoNfamMUMIdmmEGkJTlw82ITthfvyVsjsJB
uxhiCTPH2USa5LPccCij8FQesCAOKfX5fjfjYX9IyjRYtFB7u8qqRzHtZXIpar5b
4N+Rj6Y5AoGBAOnG4noAS3K6HUr5vohm/t/kJxScnlNaqvWQN95N18N28KYAs1Ls
oFEzuoJz1KPbTnpnrqcK+jCJxnbTRiFIETlW9/ejTRcpW0pooN++JFmEG5QGcOlG
ZabjqL6CnVLOzheyGed9PeGmp35isyQMAMZ7Pygyfu3d2WVLZ8ynz34dAoGBAOMD
HFTMB3kzxKu1MfebTAkkCnGReZJDVG9A+D6tq826W++YQJtgoJ8fBWal/MVpW1QI
XNFQpjm8fxp/ZeG+KzzA6l49jL1NDoWdSOoL7O06pi8pl5um6aTF6CLzm8Xx7hQc
rAZdgTXhr315yPmen2hXKmQomTwl8NoL3eMBgsqLAoGAcw2c3KpUd4w9am7rZLo7
6fihezVxflh7Fwv5UwFAlURuP2TM3Jz0ccJhol5bYqFGSFvKyw9N/qFv+X8VXr/X
Kj8xHsFR6XpDIaXItxUfUqb/46Qf4c7xrGcS31/tCZoaN/NBaHptACdC+6Kbw7vc
jdKOTLw9V9f9bCrmVQSpy8kCgYB/2ESgTLb4vvrHaKfXNhJAI5fuFWtNv7VRYllr
kwrqNUWJTUk1N9m9Qw8bm+calhbk4EDFcJHsegdquMx7sUlQUaSrpiYYhcjj3owt
osGvaBQnA1lqQznZncr5xA+6DmFx2iPXAdm+qnbWRzuzuG01qcEp3uNNSGC3q28u
ZK9vuQKBgDCJ/gFB+Mj23McfnPYyS1wNETf7ab8s1k+Wv64Si35biWAmCYzmj6PL
jt+p7AVLliUlGCK426wLkzSqIN9wLo/8/ff4HX9dtKK63xTdZ5W70vomhCYYFL7t
vIsK+wxLfuc1ZXYI6NuN4bAvF27UvxHtNeOwevgsAyKZxtzePW+T
-----END RSA PRIVATE KEY-----
-----BEGIN CERTIFICATE-----
MIIEzDCCA7SgAwIBAgICAYkwDQYJKoZIhvcNAQEFBQAwgaMxCzAJBgNVBAYTAlVZ
MRMwEQYDVQQIEwpNb250ZXZpZGVvMRMwEQYDVQQHEwpNb250ZXZpZGVvMRAwDgYD
VQQKEwdSb290V2F5MRowGAYDVQQLExFTZWN1cml0eSBEaXZpc2lvbjEYMBYGA1UE
AxMPd3d3LnJvb3R3YXkuY29tMSIwIAYJKoZIhvcNAQkBFhNzdXBwb3J0QHJvb3R3
YXkuY29tMB4XDTEyMDQzMDAwMjI1MFoXDTIyMDQyODAwMjI1MFowczELMAkGA1UE
BhMCVVkxEzARBgNVBAgTCk1vbnRldmlkZW8xEjAQBgNVBAoTCUFjbWUgSW5jLjEN
MAsGA1UECxMEVEVTVDESMBAGA1UEAxMJVEVTVC1SQURFMRgwFgYJKoZIhvcNAQkB
FglOT1QgVkFMSUQwggEiMA0GCSqGSIb3DQEBAQUAA4IBDwAwggEKAoIBAQDPTjIG
BgnfRWpL0D7J0FzMOhU9NOP0zrsNgEKkXqLmzSp4VXFOdUcLHeY21rrG++SK6whp
fU7cIQCQMIXjRaOYGi4U/nIMbpcCSnGmjieUtKAfhQUCSMaL4YcQRMejptBLXy8W
Alums+erdSEtNeYN4Vdp/pLZxHjn81ByhO8Hy7nuhruJwFIGAk0VtrWxVVTAJT8/
4R1Fo0v98wlzJ3ZtRlZioYOfOg9/9CgSIgP1asEnyQ5+O8EA8ZffXqjb+KicdnDd
d146dNNgW+mr91OkLmJkrKxONakzkX9y3kvCAWCDLmES9q7p2owIGv9fyBs9lUa6
+LbFgAyIvBv+5lu/AgMBAAGjggE3MIIBMzAJBgNVHRMEAjAAMCwGCWCGSAGG+EIB
DQQfFh1PcGVuU1NMIEdlbmVyYXRlZCBDZXJ0aWZpY2F0ZTAdBgNVHQ4EFgQUPANg
BLq4+imkq+qlglq4W/JWjtQwgdgGA1UdIwSB0DCBzYAUmOaTQkDcs+P4meenagDj
VJBEzfihgamkgaYwgaMxCzAJBgNVBAYTAlVZMRMwEQYDVQQIEwpNb250ZXZpZGVv
MRMwEQYDVQQHEwpNb250ZXZpZGVvMRAwDgYDVQQKEwdSb290V2F5MRowGAYDVQQL
ExFTZWN1cml0eSBEaXZpc2lvbjEYMBYGA1UEAxMPd3d3LnJvb3R3YXkuY29tMSIw
IAYJKoZIhvcNAQkBFhNzdXBwb3J0QHJvb3R3YXkuY29tggkA8RQ6lhFhi1AwDQYJ
KoZIhvcNAQEFBQADggEBAFIAvvrCklCH0F95bvNhOVIIFxl4QumhA3SS7HvClzCO
wElsi5S8Jcu+qD5X91V5fFH9dnPvnpr0QqkFYKr7zFf5g3pGc1YmO4/uCoGTLHL6
jvIc29UhWINNrZNSgZ2rDhYDXS/IMwf3BoDtygIAahdolgMmcHHs9f8D24CxLS46
psklIHqErPP/avj+6qi46EyRJqoTEffLedMcqGpvVPAqoWMJvBT54Tn4hPIbP5fq
mDmpQRrrzDn5M5otnnMmpKwOJ45tEoM3W602lbZS2vA9HI71n8Wzl558tNebpOv/
s16WTVUfqrTofAIErlyyo7Nu++gxqHsIMc213pRjrQ0=
-----END CERTIFICATE-----
